; Function Attrs: nounwind uwtable
define internal fastcc range(i32 0, 2) i32 @backref_match_at_nested_level(ptr noundef readonly captures(none) %0, ptr noundef readonly captures(address) %1, ptr noundef readnone captures(address) %2, i32 noundef range(i32 0, 2) %3, i32 noundef %4, i32 noundef %5, i32 noundef %6, ptr noundef readonly captures(none) %7, ptr noundef nonnull captures(none) %8, ptr noundef %9) unnamed_addr #4 {
  %11 = alloca ptr, align 8
  call void @llvm.lifetime.start.p0(i64 8, ptr nonnull %11) #30
  %.067 = getelementptr inbounds i8, ptr %1, i64 -32
  %.not68 = icmp ult ptr %.067, %2
  br i1 %.not68, label %.loopexit64, label %.lr.ph

.lr.ph:                                           ; preds = %10
  %12 = icmp sgt i32 %6, 0
  %wide.trip.count.i52 = zext nneg i32 %6 to i64
  br i1 %12, label %.lr.ph.split.us.split.us, label %.loopexit64

.lr.ph.split.us.split.us:                         ; preds = %.lr.ph, %mem_is_in_memp.exit.thread.us.us
  %.072.us.us = phi ptr [ %.0.us.us, %mem_is_in_memp.exit.thread.us.us ], [ %.067, %.lr.ph ]
  %.pn71.us.us = phi ptr [ %.072.us.us, %mem_is_in_memp.exit.thread.us.us ], [ %1, %.lr.ph ]
  %.03870.us.us = phi i32 [ %.1.us.us, %mem_is_in_memp.exit.thread.us.us ], [ 0, %.lr.ph ]
  %.03969.us.us = phi ptr [ %.140.us.us, %mem_is_in_memp.exit.thread.us.us ], [ null, %.lr.ph ]
  %13 = load i32, ptr %.072.us.us, align 8, !tbaa !109
  switch i32 %13, label %18 [
    i32 1040, label %16
    i32 1296, label %14
  ]

14:                                               ; preds = %.lr.ph.split.us.split.us
  %15 = add nsw i32 %.03870.us.us, 1
  br label %mem_is_in_memp.exit.thread.us.us

16:                                               ; preds = %.lr.ph.split.us.split.us
  %17 = add nsw i32 %.03870.us.us, -1
  br label %mem_is_in_memp.exit.thread.us.us

18:                                               ; preds = %.lr.ph.split.us.split.us
  %19 = icmp eq i32 %.03870.us.us, %5
  br i1 %19, label %20, label %mem_is_in_memp.exit.thread.us.us

20:                                               ; preds = %18
  switch i32 %13, label %mem_is_in_memp.exit.thread.us.us [
    i32 16, label %.lr.ph.preheader.i.us.us
    i32 32816, label %.lr.ph.preheader.i51.us.us
  ]

.lr.ph.preheader.i51.us.us:                       ; preds = %20
  %21 = getelementptr inbounds i8, ptr %.pn71.us.us, i64 -28
  %22 = load i32, ptr %21, align 4, !tbaa !127
  br label %.lr.ph.i53.us.us

.lr.ph.i53.us.us:                                 ; preds = %26, %.lr.ph.preheader.i51.us.us
  %indvars.iv.i54.us.us = phi i64 [ 0, %.lr.ph.preheader.i51.us.us ], [ %indvars.iv.next.i55.us.us, %26 ]
  %23 = getelementptr inbounds nuw i32, ptr %7, i64 %indvars.iv.i54.us.us
  %24 = load i32, ptr %23, align 4, !tbaa !24
  %25 = icmp eq i32 %22, %24
  br i1 %25, label %mem_is_in_memp.exit57.us.us, label %26

26:                                               ; preds = %.lr.ph.i53.us.us
  %indvars.iv.next.i55.us.us = add nuw nsw i64 %indvars.iv.i54.us.us, 1
  %exitcond.not.i56.us.us = icmp eq i64 %indvars.iv.next.i55.us.us, %wide.trip.count.i52
  br i1 %exitcond.not.i56.us.us, label %mem_is_in_memp.exit.thread.us.us, label %.lr.ph.i53.us.us, !llvm.loop !139

mem_is_in_memp.exit57.us.us:                      ; preds = %.lr.ph.i53.us.us
  %27 = getelementptr inbounds i8, ptr %.pn71.us.us, i64 -24
  %28 = load ptr, ptr %27, align 8, !tbaa !56
  br label %mem_is_in_memp.exit.thread.us.us

.lr.ph.preheader.i.us.us:                         ; preds = %20
  %29 = getelementptr inbounds i8, ptr %.pn71.us.us, i64 -28
  %30 = load i32, ptr %29, align 4, !tbaa !127
  br label %.lr.ph.i.us.us

.lr.ph.i.us.us:                                   ; preds = %34, %.lr.ph.preheader.i.us.us
  %indvars.iv.i.us.us = phi i64 [ 0, %.lr.ph.preheader.i.us.us ], [ %indvars.iv.next.i.us.us, %34 ]
  %31 = getelementptr inbounds nuw i32, ptr %7, i64 %indvars.iv.i.us.us
  %32 = load i32, ptr %31, align 4, !tbaa !24
  %33 = icmp eq i32 %30, %32
  br i1 %33, label %mem_is_in_memp.exit.us.us, label %34

34:                                               ; preds = %.lr.ph.i.us.us
  %indvars.iv.next.i.us.us = add nuw nsw i64 %indvars.iv.i.us.us, 1
  %exitcond.not.i.us.us = icmp eq i64 %indvars.iv.next.i.us.us, %wide.trip.count.i52
  br i1 %exitcond.not.i.us.us, label %mem_is_in_memp.exit.thread.us.us, label %.lr.ph.i.us.us, !llvm.loop !139

mem_is_in_memp.exit.us.us:                        ; preds = %.lr.ph.i.us.us
  %.not47.us.us = icmp eq ptr %.03969.us.us, null
  br i1 %.not47.us.us, label %mem_is_in_memp.exit.thread.us.us, label %.split.us

mem_is_in_memp.exit.thread.us.us:                 ; preds = %26, %34, %mem_is_in_memp.exit.us.us, %mem_is_in_memp.exit57.us.us, %20, %18, %16, %14
  %.140.us.us = phi ptr [ %.03969.us.us, %16 ], [ %.03969.us.us, %14 ], [ null, %mem_is_in_memp.exit.us.us ], [ %28, %mem_is_in_memp.exit57.us.us ], [ %.03969.us.us, %18 ], [ %.03969.us.us, %20 ], [ %.03969.us.us, %34 ], [ %.03969.us.us, %26 ]
  %.1.us.us = phi i32 [ %17, %16 ], [ %15, %14 ], [ %5, %mem_is_in_memp.exit.us.us ], [ %5, %mem_is_in_memp.exit57.us.us ], [ %.03870.us.us, %18 ], [ %5, %20 ], [ %5, %34 ], [ %5, %26 ]
  %.0.us.us = getelementptr inbounds i8, ptr %.072.us.us, i64 -32
  %.not.us.us = icmp ult ptr %.0.us.us, %2
  br i1 %.not.us.us, label %.loopexit64, label %.lr.ph.split.us.split.us, !llvm.loop !214

.split.us:                                        ; preds = %mem_is_in_memp.exit.us.us
  %35 = getelementptr inbounds i8, ptr %.pn71.us.us, i64 -24
  %36 = load ptr, ptr %35, align 8, !tbaa !56
  %37 = ptrtoint ptr %.03969.us.us to i64
  %38 = ptrtoint ptr %36 to i64
  %39 = sub i64 %37, %38
  %40 = load ptr, ptr %8, align 8, !tbaa !105
  %41 = ptrtoint ptr %9 to i64
  %42 = ptrtoint ptr %40 to i64
  %43 = sub i64 %41, %42
  %44 = icmp sgt i64 %39, %43
  br i1 %44, label %.loopexit64, label %45

45:                                               ; preds = %.split.us
  store ptr %40, ptr %11, align 8, !tbaa !105
  %.not48 = icmp eq i32 %3, 0
  br i1 %.not48, label %.preheader, label %46

46:                                               ; preds = %45
  %47 = getelementptr inbounds nuw i8, ptr %0, i64 96
  %48 = load ptr, ptr %47, align 8, !tbaa !97
  %49 = trunc i64 %39 to i32
  %50 = call fastcc i32 @string_cmp_ic(ptr noundef %48, i32 noundef %4, ptr noundef %36, ptr noundef %11, i32 noundef %49)
  %51 = icmp eq i32 %50, 0
  br i1 %51, label %.loopexit64, label %._crit_edge

._crit_edge:                                      ; preds = %46
  %.pre = load ptr, ptr %11, align 8, !tbaa !105
  br label %.loopexit

.preheader:                                       ; preds = %45, %54
  %52 = phi ptr [ %57, %54 ], [ %40, %45 ]
  %.042 = phi ptr [ %55, %54 ], [ %36, %45 ]
  %53 = icmp ult ptr %.042, %.03969.us.us
  br i1 %53, label %54, label %.loopexit

54:                                               ; preds = %.preheader
  %55 = getelementptr inbounds nuw i8, ptr %.042, i64 1
  %56 = load i8, ptr %.042, align 1, !tbaa !56
  %57 = getelementptr inbounds nuw i8, ptr %52, i64 1
  %58 = load i8, ptr %52, align 1, !tbaa !56
  %.not49 = icmp eq i8 %56, %58
  br i1 %.not49, label %.preheader, label %.loopexit64, !llvm.loop !215

.loopexit:                                        ; preds = %.preheader, %._crit_edge
  %59 = phi ptr [ %.pre, %._crit_edge ], [ %52, %.preheader ]
  store ptr %59, ptr %8, align 8, !tbaa !105
  br label %.loopexit64

.loopexit64:                                      ; preds = %mem_is_in_memp.exit.thread.us.us, %54, %.lr.ph, %10, %46, %.split.us, %.loopexit
  %.041 = phi i32 [ 1, %.loopexit ], [ 0, %.split.us ], [ 0, %46 ], [ 0, %10 ], [ 0, %.lr.ph ], [ 0, %54 ], [ 0, %mem_is_in_memp.exit.thread.us.us ]
  call void @llvm.lifetime.end.p0(i64 8, ptr nonnull %11) #30
  ret i32 %.041
}